target datalayout = "e-m:e-p270:32:32-p271:32:32-p272:64:64-i64:64-i128:128-f80:128-n8:16:32:64-S128"
target triple = "x86_64-pc-linux-gnu"

%"struct.cv::MatSize" = type { ptr }
%"struct.cv::MatStep" = type { ptr, [2 x i64] }
%"class.cv::Mat" = type { i32, i32, i32, i32, ptr, ptr, ptr, ptr, ptr, ptr, %"struct.cv::MatSize", %"struct.cv::MatStep" }

; Function Attrs: inlinehint mustprogress nounwind uwtable
define internal noundef float @_ZN2cv6detailL3sqrEf(float noundef %0) #7 {
  %2 = alloca float, align 4
  store float %0, ptr %2, align 4, !tbaa !262
  %3 = load float, ptr %2, align 4, !tbaa !262
  %4 = load float, ptr %2, align 4, !tbaa !262
  %5 = fmul float %3, %4
  ret float %5
}

; Function Attrs: inlinehint mustprogress nounwind uwtable
define linkonce_odr hidden noundef ptr @_ZNK2cv3Mat3ptrIfEEPKT_i(ptr noundef nonnull align 8 dereferenceable(96) %0, i32 noundef %1) #7 comdat align 2 {
  %3 = alloca ptr, align 8
  %4 = alloca i32, align 4
  store ptr %0, ptr %3, align 8, !tbaa !85
  store i32 %1, ptr %4, align 4, !tbaa !3
  %5 = load ptr, ptr %3, align 8
  %6 = getelementptr inbounds nuw %"class.cv::Mat", ptr %5, i32 0, i32 4
  %7 = load ptr, ptr %6, align 8, !tbaa !87
  %8 = getelementptr inbounds nuw %"class.cv::Mat", ptr %5, i32 0, i32 11
  %9 = getelementptr inbounds nuw %"struct.cv::MatStep", ptr %8, i32 0, i32 0
  %10 = load ptr, ptr %9, align 8, !tbaa !93
  %11 = getelementptr inbounds i64, ptr %10, i64 0
  %12 = load i64, ptr %11, align 8, !tbaa !28
  %13 = load i32, ptr %4, align 4, !tbaa !3
  %14 = sext i32 %13 to i64
  %15 = mul i64 %12, %14
  %16 = getelementptr inbounds nuw i8, ptr %7, i64 %15
  ret ptr %16
}

; Function Attrs: mustprogress uwtable
define internal noundef float @_ZN2cv6detail12_GLOBAL__N_113diffL2Square3IfEEfRKNS_3MatEiiS5_ii(ptr noundef nonnull align 8 dereferenceable(96) %0, i32 noundef %1, i32 noundef %2, ptr noundef nonnull align 8 dereferenceable(96) %3, i32 noundef %4, i32 noundef %5) #4 {
  %7 = alloca ptr, align 8
  %8 = alloca i32, align 4
  %9 = alloca i32, align 4
  %10 = alloca ptr, align 8
  %11 = alloca i32, align 4
  %12 = alloca i32, align 4
  %13 = alloca ptr, align 8
  %14 = alloca ptr, align 8
  store ptr %0, ptr %7, align 8, !tbaa !85
  store i32 %1, ptr %8, align 4, !tbaa !3
  store i32 %2, ptr %9, align 4, !tbaa !3
  store ptr %3, ptr %10, align 8, !tbaa !85
  store i32 %4, ptr %11, align 4, !tbaa !3
  store i32 %5, ptr %12, align 4, !tbaa !3
  call void @llvm.lifetime.start.p0(i64 8, ptr %13) #3
  %15 = load ptr, ptr %7, align 8, !tbaa !85
  %16 = load i32, ptr %8, align 4, !tbaa !3
  %17 = call noundef ptr @_ZNK2cv3Mat3ptrIfEEPKT_i(ptr noundef nonnull align 8 dereferenceable(96) %15, i32 noundef %16)
  store ptr %17, ptr %13, align 8, !tbaa !322
  call void @llvm.lifetime.start.p0(i64 8, ptr %14) #3
  %18 = load ptr, ptr %10, align 8, !tbaa !85
  %19 = load i32, ptr %11, align 4, !tbaa !3
  %20 = call noundef ptr @_ZNK2cv3Mat3ptrIfEEPKT_i(ptr noundef nonnull align 8 dereferenceable(96) %18, i32 noundef %19)
  store ptr %20, ptr %14, align 8, !tbaa !322
  %21 = load ptr, ptr %13, align 8, !tbaa !322
  %22 = load i32, ptr %9, align 4, !tbaa !3
  %23 = mul nsw i32 3, %22
  %24 = sext i32 %23 to i64
  %25 = getelementptr inbounds float, ptr %21, i64 %24
  %26 = load float, ptr %25, align 4, !tbaa !262
  %27 = load ptr, ptr %14, align 8, !tbaa !322
  %28 = load i32, ptr %12, align 4, !tbaa !3
  %29 = mul nsw i32 3, %28
  %30 = sext i32 %29 to i64
  %31 = getelementptr inbounds float, ptr %27, i64 %30
  %32 = load float, ptr %31, align 4, !tbaa !262
  %33 = fsub float %26, %32
  %34 = call noundef float @_ZN2cv6detailL3sqrEf(float noundef %33)
  %35 = load ptr, ptr %13, align 8, !tbaa !322
  %36 = load i32, ptr %9, align 4, !tbaa !3
  %37 = mul nsw i32 3, %36
  %38 = add nsw i32 %37, 1
  %39 = sext i32 %38 to i64
  %40 = getelementptr inbounds float, ptr %35, i64 %39
  %41 = load float, ptr %40, align 4, !tbaa !262
  %42 = load ptr, ptr %14, align 8, !tbaa !322
  %43 = load i32, ptr %12, align 4, !tbaa !3
  %44 = mul nsw i32 3, %43
  %45 = add nsw i32 %44, 1
  %46 = sext i32 %45 to i64
  %47 = getelementptr inbounds float, ptr %42, i64 %46
  %48 = load float, ptr %47, align 4, !tbaa !262
  %49 = fsub float %41, %48
  %50 = call noundef float @_ZN2cv6detailL3sqrEf(float noundef %49)
  %51 = fadd float %34, %50
  %52 = load ptr, ptr %13, align 8, !tbaa !322
  %53 = load i32, ptr %9, align 4, !tbaa !3
  %54 = mul nsw i32 3, %53
  %55 = add nsw i32 %54, 2
  %56 = sext i32 %55 to i64
  %57 = getelementptr inbounds float, ptr %52, i64 %56
  %58 = load float, ptr %57, align 4, !tbaa !262
  %59 = load ptr, ptr %14, align 8, !tbaa !322
  %60 = load i32, ptr %12, align 4, !tbaa !3
  %61 = mul nsw i32 3, %60
  %62 = add nsw i32 %61, 2
  %63 = sext i32 %62 to i64
  %64 = getelementptr inbounds float, ptr %59, i64 %63
  %65 = load float, ptr %64, align 4, !tbaa !262
  %66 = fsub float %58, %65
  %67 = call noundef float @_ZN2cv6detailL3sqrEf(float noundef %66)
  %68 = fadd float %51, %67
  call void @llvm.lifetime.end.p0(i64 8, ptr %14) #3
  call void @llvm.lifetime.end.p0(i64 8, ptr %13) #3
  ret float %68
}