; Function Attrs: mustprogress nofree norecurse nosync nounwind willreturn memory(read, inaccessiblemem: none) uwtable
define internal noundef float @_ZN2cv6detail12_GLOBAL__N_113diffL2Square3IfEEfRKNS_3MatEiiS5_ii(ptr noundef nonnull readonly align 8 captures(none) dereferenceable(96) %0, i32 noundef %1, i32 noundef %2, ptr noundef nonnull readonly align 8 captures(none) dereferenceable(96) %3, i32 noundef %4, i32 noundef %5) unnamed_addr #12 {
  %7 = getelementptr inbounds nuw i8, ptr %0, i64 16
  %8 = load ptr, ptr %7, align 8, !tbaa !77
  %9 = getelementptr inbounds nuw i8, ptr %0, i64 72
  %10 = load ptr, ptr %9, align 8, !tbaa !83
  %11 = load i64, ptr %10, align 8, !tbaa !84
  %12 = sext i32 %1 to i64
  %13 = mul i64 %11, %12
  %14 = getelementptr inbounds nuw i8, ptr %8, i64 %13
  %15 = getelementptr inbounds nuw i8, ptr %3, i64 16
  %16 = load ptr, ptr %15, align 8, !tbaa !77
  %17 = getelementptr inbounds nuw i8, ptr %3, i64 72
  %18 = load ptr, ptr %17, align 8, !tbaa !83
  %19 = load i64, ptr %18, align 8, !tbaa !84
  %20 = sext i32 %4 to i64
  %21 = mul i64 %19, %20
  %22 = getelementptr inbounds nuw i8, ptr %16, i64 %21
  %23 = mul nsw i32 %2, 3
  %24 = sext i32 %23 to i64
  %25 = getelementptr inbounds float, ptr %14, i64 %24
  %26 = load float, ptr %25, align 4, !tbaa !292
  %27 = mul nsw i32 %5, 3
  %28 = sext i32 %27 to i64
  %29 = getelementptr inbounds float, ptr %22, i64 %28
  %30 = load float, ptr %29, align 4, !tbaa !292
  %31 = fsub float %26, %30
  %32 = fmul float %31, %31
  %33 = getelementptr i8, ptr %25, i64 4
  %34 = load float, ptr %33, align 4, !tbaa !292
  %35 = getelementptr i8, ptr %29, i64 4
  %36 = load float, ptr %35, align 4, !tbaa !292
  %37 = fsub float %34, %36
  %38 = fmul float %37, %37
  %39 = fadd float %32, %38
  %40 = getelementptr i8, ptr %25, i64 8
  %41 = load float, ptr %40, align 4, !tbaa !292
  %42 = getelementptr i8, ptr %29, i64 8
  %43 = load float, ptr %42, align 4, !tbaa !292
  %44 = fsub float %41, %43
  %45 = fmul float %44, %44
  %46 = fadd float %39, %45
  ret float %46
}